; Function Attrs: mustprogress uwtable
define void @_ZN8facebook4yoga5Event7publishEPK6YGNodeNS1_4TypeERKNS1_4DataE(ptr noundef %0, i32 noundef %1, ptr noundef nonnull readonly align 8 captures(none) dereferenceable(8) %2) local_unnamed_addr #1 align 2 personality ptr @__gxx_personality_v0 {
  %4 = alloca %"class.facebook::yoga::Event::Data", align 8
  %5 = alloca ptr, align 8
  %6 = alloca i32, align 4
  %7 = load atomic i64, ptr @_ZN8facebook4yoga12_GLOBAL__N_111subscribersE monotonic, align 8
  %.not5 = icmp eq i64 %7, 0
  br i1 %.not5, label %._crit_edge, label %.lr.ph.preheader

.lr.ph.preheader:                                 ; preds = %3
  %8 = inttoptr i64 %7 to ptr
  br label %.lr.ph

._crit_edge:                                      ; preds = %_ZNKSt8functionIFvPK6YGNodeN8facebook4yoga5Event4TypeENS5_4DataEEEclES2_S6_S7_.exit, %3
  ret void

.lr.ph:                                           ; preds = %.lr.ph.preheader, %_ZNKSt8functionIFvPK6YGNodeN8facebook4yoga5Event4TypeENS5_4DataEEEclES2_S6_S7_.exit
  %.06 = phi ptr [ %15, %_ZNKSt8functionIFvPK6YGNodeN8facebook4yoga5Event4TypeENS5_4DataEEEclES2_S6_S7_.exit ], [ %8, %.lr.ph.preheader ]
  %.sroa.0.0.copyload = load ptr, ptr %2, align 8, !tbaa !18
  call void @llvm.lifetime.start.p0(i64 8, ptr nonnull %4)
  call void @llvm.lifetime.start.p0(i64 8, ptr nonnull %5)
  call void @llvm.lifetime.start.p0(i64 4, ptr nonnull %6)
  store ptr %.sroa.0.0.copyload, ptr %4, align 8
  store ptr %0, ptr %5, align 8, !tbaa !19
  store i32 %1, ptr %6, align 4, !tbaa !21
  %9 = getelementptr inbounds nuw i8, ptr %.06, i64 16
  %10 = load ptr, ptr %9, align 8, !tbaa !12
  %.not.i.i = icmp eq ptr %10, null
  br i1 %.not.i.i, label %11, label %_ZNKSt8functionIFvPK6YGNodeN8facebook4yoga5Event4TypeENS5_4DataEEEclES2_S6_S7_.exit

11:                                               ; preds = %.lr.ph
  call void @_ZSt25__throw_bad_function_callv() #13
  unreachable

_ZNKSt8functionIFvPK6YGNodeN8facebook4yoga5Event4TypeENS5_4DataEEEclES2_S6_S7_.exit: ; preds = %.lr.ph
  %12 = getelementptr inbounds nuw i8, ptr %.06, i64 24
  %13 = load ptr, ptr %12, align 8, !tbaa !15
  call void %13(ptr noundef nonnull align 8 dereferenceable(32) %.06, ptr noundef nonnull align 8 dereferenceable(8) %5, ptr noundef nonnull align 4 dereferenceable(4) %6, ptr noundef nonnull align 8 dereferenceable(8) %4)
  call void @llvm.lifetime.end.p0(i64 8, ptr nonnull %4)
  call void @llvm.lifetime.end.p0(i64 8, ptr nonnull %5)
  call void @llvm.lifetime.end.p0(i64 4, ptr nonnull %6)
  %14 = getelementptr inbounds nuw i8, ptr %.06, i64 32
  %15 = load ptr, ptr %14, align 8, !tbaa !4
  %.not = icmp eq ptr %15, null
  br i1 %.not, label %._crit_edge, label %.lr.ph, !llvm.loop !23
}